; Function Attrs: nounwind uwtable
define internal noundef zeroext i1 @validate_index_callback(ptr noundef readonly captures(none) %0, ptr noundef captures(none) %1) #0 {
  %.val.i = load i16, ptr %0, align 2
  %3 = getelementptr i8, ptr %0, i64 2
  %.val4.i = load i16, ptr %3, align 2
  %4 = zext i16 %.val.i to i64
  %5 = zext i16 %.val4.i to i64
  %6 = getelementptr i8, ptr %0, i64 4
  %.val5.i = load i16, ptr %6, align 2
  %7 = shl nuw nsw i64 %4, 32
  %8 = shl nuw nsw i64 %5, 16
  %9 = or disjoint i64 %8, %7
  %10 = zext i16 %.val5.i to i64
  %11 = or disjoint i64 %9, %10
  %12 = load ptr, ptr %1, align 8
  tail call void @tuplesort_putdatum(ptr noundef %12, i64 noundef %11, i1 noundef zeroext false) #11
  %13 = getelementptr inbounds nuw i8, ptr %1, i64 16
  %14 = load double, ptr %13, align 8
  %15 = fadd double %14, 1.000000e+00
  store double %15, ptr %13, align 8
  ret i1 false
}